; Function Attrs: null_pointer_is_valid sspstrong uwtable
define internal noundef zeroext i1 @snoop_read(ptr noundef readonly captures(none) %0, ptr noundef %1, ptr noundef %2, ptr noundef %3, ptr noundef writeonly captures(none) initializes((0, 8)) %4) #0 {
  %6 = load ptr, ptr %0, align 8
  %7 = tail call i64 @file_tell(ptr noundef %6)
  store i64 %7, ptr %4, align 8
  %8 = load ptr, ptr %0, align 8
  %9 = tail call fastcc i32 @snoop_read_packet(ptr noundef %0, ptr noundef %8, ptr noundef %1, ptr noundef %2, ptr noundef %3)
  switch i32 %9, label %10 [
    i32 -1, label %14
    i32 0, label %13
  ]

10:                                               ; preds = %5
  %11 = load ptr, ptr %0, align 8
  %12 = tail call zeroext i1 @wtap_read_bytes(ptr noundef %11, ptr noundef null, i32 noundef %9, ptr noundef %2, ptr noundef %3)
  br i1 %12, label %13, label %14

13:                                               ; preds = %5, %10
  br label %14

14:                                               ; preds = %10, %5, %13
  %.0 = phi i1 [ true, %13 ], [ false, %5 ], [ false, %10 ]
  ret i1 %.0
}